; Function Attrs: mustprogress uwtable
define void @_ZN3zmq12thread_ctx_tC2Ev(ptr noundef nonnull align 8 dereferenceable(136) %0) unnamed_addr #0 align 2 personality ptr @__gxx_personality_v0 {
  tail call void @_ZN3zmq7mutex_tC2Ev(ptr noundef nonnull align 8 dereferenceable(44) %0)
  %2 = getelementptr inbounds nuw i8, ptr %0, i64 48
  store i32 -1, ptr %2, align 8, !tbaa !3
  %3 = getelementptr inbounds nuw i8, ptr %0, i64 52
  store i32 -1, ptr %3, align 4, !tbaa !23
  %4 = getelementptr inbounds nuw i8, ptr %0, i64 64
  store i32 0, ptr %4, align 8, !tbaa !24
  %5 = getelementptr inbounds nuw i8, ptr %0, i64 72
  store ptr null, ptr %5, align 8, !tbaa !25
  %6 = getelementptr inbounds nuw i8, ptr %0, i64 80
  store ptr %4, ptr %6, align 8, !tbaa !26
  %7 = getelementptr inbounds nuw i8, ptr %0, i64 88
  store ptr %4, ptr %7, align 8, !tbaa !27
  %8 = getelementptr inbounds nuw i8, ptr %0, i64 96
  store i64 0, ptr %8, align 8, !tbaa !28
  %9 = getelementptr inbounds nuw i8, ptr %0, i64 104
  %10 = getelementptr inbounds nuw i8, ptr %0, i64 120
  store ptr %10, ptr %9, align 8, !tbaa !29
  %11 = getelementptr inbounds nuw i8, ptr %0, i64 112
  store i64 0, ptr %11, align 8, !tbaa !30
  store i8 0, ptr %10, align 8, !tbaa !31
  ret void
}